; Function Attrs: nounwind uwtable
define hidden i32 @SDL_hid_get_input_report_REAL(ptr noundef %0, ptr noundef %1, i64 noundef %2) local_unnamed_addr #1 {
  %4 = tail call zeroext i1 @SDL_ObjectValid(ptr noundef %0, i32 noundef 8) #22
  br i1 %4, label %7, label %5

5:                                                ; preds = %3
  %6 = tail call zeroext i1 (ptr, ...) @SDL_SetError_REAL(ptr noundef nonnull @.str.30) #22
  br label %14

7:                                                ; preds = %3
  %8 = getelementptr inbounds nuw i8, ptr %0, i64 8
  %9 = load ptr, ptr %8, align 8
  %10 = getelementptr inbounds nuw i8, ptr %9, i64 48
  %11 = load ptr, ptr %10, align 8
  %12 = load ptr, ptr %0, align 8
  %13 = tail call i32 %11(ptr noundef %12, ptr noundef %1, i64 noundef %2) #22
  br label %14

14:                                               ; preds = %7, %5
  %.0 = phi i32 [ %13, %7 ], [ -1, %5 ]
  ret i32 %.0
}